target datalayout = "e-m:e-p270:32:32-p271:32:32-p272:64:64-i64:64-i128:128-f80:128-n8:16:32:64-S128"
target triple = "x86_64-pc-linux-gnu"

%struct.Ifn_ThData_t_ = type { ptr, [64 x i64], [10 x i64], i32, i32, i32, i32, i32, i32, i64 }
%struct.timespec = type { i64, i64 }

; Function Attrs: inlinehint nounwind uwtable
define internal i64 @Abc_Clock() #1 {
  %1 = alloca i64, align 8
  %2 = alloca %struct.timespec, align 8
  %3 = alloca i32, align 4
  %4 = alloca i64, align 8
  call void @llvm.lifetime.start.p0(i64 16, ptr %2) #15
  %5 = call i32 @clock_gettime(i32 noundef 1, ptr noundef %2) #15
  %6 = icmp slt i32 %5, 0
  br i1 %6, label %7, label %8

7:                                                ; preds = %0
  store i64 -1, ptr %1, align 8
  store i32 1, ptr %3, align 4
  br label %19

8:                                                ; preds = %0
  call void @llvm.lifetime.start.p0(i64 8, ptr %4) #15
  %9 = getelementptr inbounds nuw %struct.timespec, ptr %2, i32 0, i32 0
  %10 = load i64, ptr %9, align 8, !tbaa !356
  %11 = mul nsw i64 %10, 1000000
  store i64 %11, ptr %4, align 8, !tbaa !116
  %12 = getelementptr inbounds nuw %struct.timespec, ptr %2, i32 0, i32 1
  %13 = load i64, ptr %12, align 8, !tbaa !358
  %14 = mul nsw i64 %13, 1000000
  %15 = sdiv i64 %14, 1000000000
  %16 = load i64, ptr %4, align 8, !tbaa !116
  %17 = add nsw i64 %16, %15
  store i64 %17, ptr %4, align 8, !tbaa !116
  %18 = load i64, ptr %4, align 8, !tbaa !116
  store i64 %18, ptr %1, align 8
  store i32 1, ptr %3, align 4
  call void @llvm.lifetime.end.p0(i64 8, ptr %4) #15
  br label %19

19:                                               ; preds = %8, %7
  call void @llvm.lifetime.end.p0(i64 16, ptr %2) #15
  %20 = load i64, ptr %1, align 8
  ret i64 %20
}

; Function Attrs: nounwind uwtable
define ptr @Ifn_WorkerThread(ptr noundef %0) #0 {
  %2 = alloca ptr, align 8
  %3 = alloca ptr, align 8
  %4 = alloca ptr, align 8
  %5 = alloca i64, align 8
  store ptr %0, ptr %2, align 8, !tbaa !44
  call void @llvm.lifetime.start.p0(i64 8, ptr %3) #15
  %6 = load ptr, ptr %2, align 8, !tbaa !44
  store ptr %6, ptr %3, align 8, !tbaa !306
  call void @llvm.lifetime.start.p0(i64 8, ptr %4) #15
  %7 = load ptr, ptr %3, align 8, !tbaa !306
  %8 = getelementptr inbounds nuw %struct.Ifn_ThData_t_, ptr %7, i32 0, i32 8
  store ptr %8, ptr %4, align 8, !tbaa !60
  call void @llvm.lifetime.start.p0(i64 8, ptr %5) #15
  br label %9

9:                                                ; preds = %22, %1
  br label %10

10:                                               ; preds = %9
  br label %11

11:                                               ; preds = %15, %10
  %12 = load ptr, ptr %4, align 8, !tbaa !60
  %13 = load volatile i32, ptr %12, align 4, !tbaa !27
  %14 = icmp eq i32 %13, 0
  br i1 %14, label %15, label %16

15:                                               ; preds = %11
  br label %11, !llvm.loop !308

16:                                               ; preds = %11
  %17 = load ptr, ptr %3, align 8, !tbaa !306
  %18 = getelementptr inbounds nuw %struct.Ifn_ThData_t_, ptr %17, i32 0, i32 5
  %19 = load i32, ptr %18, align 8, !tbaa !309
  %20 = icmp eq i32 %19, -1
  br i1 %20, label %21, label %22

21:                                               ; preds = %16
  call void @pthread_exit(ptr noundef null) #20
  unreachable

22:                                               ; preds = %16
  %23 = call i64 @Abc_Clock()
  store i64 %23, ptr %5, align 8, !tbaa !116
  %24 = load ptr, ptr %3, align 8, !tbaa !306
  %25 = getelementptr inbounds nuw %struct.Ifn_ThData_t_, ptr %24, i32 0, i32 2
  %26 = getelementptr inbounds [10 x i64], ptr %25, i64 0, i64 0
  %27 = load ptr, ptr %3, align 8, !tbaa !306
  %28 = getelementptr inbounds nuw %struct.Ifn_ThData_t_, ptr %27, i32 0, i32 3
  %29 = load i32, ptr %28, align 8, !tbaa !311
  %30 = sext i32 %29 to i64
  %31 = mul i64 8, %30
  call void @llvm.memset.p0.i64(ptr align 8 %26, i8 0, i64 %31, i1 false)
  %32 = load ptr, ptr %3, align 8, !tbaa !306
  %33 = getelementptr inbounds nuw %struct.Ifn_ThData_t_, ptr %32, i32 0, i32 0
  %34 = load ptr, ptr %33, align 8, !tbaa !312
  %35 = load ptr, ptr %3, align 8, !tbaa !306
  %36 = getelementptr inbounds nuw %struct.Ifn_ThData_t_, ptr %35, i32 0, i32 1
  %37 = getelementptr inbounds [64 x i64], ptr %36, i64 0, i64 0
  %38 = load ptr, ptr %3, align 8, !tbaa !306
  %39 = getelementptr inbounds nuw %struct.Ifn_ThData_t_, ptr %38, i32 0, i32 4
  %40 = load i32, ptr %39, align 4, !tbaa !313
  %41 = load ptr, ptr %3, align 8, !tbaa !306
  %42 = getelementptr inbounds nuw %struct.Ifn_ThData_t_, ptr %41, i32 0, i32 6
  %43 = load i32, ptr %42, align 4, !tbaa !314
  %44 = load ptr, ptr %3, align 8, !tbaa !306
  %45 = getelementptr inbounds nuw %struct.Ifn_ThData_t_, ptr %44, i32 0, i32 2
  %46 = getelementptr inbounds [10 x i64], ptr %45, i64 0, i64 0
  %47 = call i32 @Ifn_NtkMatch(ptr noundef %34, ptr noundef %37, i32 noundef %40, i32 noundef %43, i32 noundef 0, i32 noundef 0, ptr noundef %46)
  %48 = load ptr, ptr %3, align 8, !tbaa !306
  %49 = getelementptr inbounds nuw %struct.Ifn_ThData_t_, ptr %48, i32 0, i32 7
  store i32 %47, ptr %49, align 8, !tbaa !315
  %50 = call i64 @Abc_Clock()
  %51 = load i64, ptr %5, align 8, !tbaa !116
  %52 = sub nsw i64 %50, %51
  %53 = load ptr, ptr %3, align 8, !tbaa !306
  %54 = getelementptr inbounds nuw %struct.Ifn_ThData_t_, ptr %53, i32 0, i32 9
  %55 = load i64, ptr %54, align 8, !tbaa !316
  %56 = add nsw i64 %55, %52
  store i64 %56, ptr %54, align 8, !tbaa !316
  %57 = load ptr, ptr %3, align 8, !tbaa !306
  %58 = getelementptr inbounds nuw %struct.Ifn_ThData_t_, ptr %57, i32 0, i32 8
  store i32 0, ptr %58, align 4, !tbaa !317
  br label %9
}