; Function Attrs: noreturn nounwind uwtable
define noalias noundef nonnull ptr @Ifn_WorkerThread(ptr noundef %0) #27 {
  %2 = alloca %struct.timespec, align 8
  %3 = alloca %struct.timespec, align 8
  %4 = getelementptr inbounds nuw i8, ptr %0, i64 620
  %5 = getelementptr inbounds nuw i8, ptr %0, i64 608
  %6 = getelementptr inbounds nuw i8, ptr %3, i64 8
  %7 = getelementptr inbounds nuw i8, ptr %0, i64 520
  %8 = getelementptr inbounds nuw i8, ptr %0, i64 600
  %9 = getelementptr inbounds nuw i8, ptr %0, i64 8
  %10 = getelementptr inbounds nuw i8, ptr %0, i64 604
  %11 = getelementptr inbounds nuw i8, ptr %0, i64 612
  %12 = getelementptr inbounds nuw i8, ptr %0, i64 616
  %13 = getelementptr inbounds nuw i8, ptr %2, i64 8
  %14 = getelementptr inbounds nuw i8, ptr %0, i64 624
  br label %15

15:                                               ; preds = %.backedge, %1
  %16 = load volatile i32, ptr %4, align 4, !tbaa !40
  %17 = icmp eq i32 %16, 0
  br i1 %17, label %.backedge, label %18

.backedge:                                        ; preds = %15, %Abc_Clock.exit15
  br label %15, !llvm.loop !279

18:                                               ; preds = %15
  %19 = load i32, ptr %5, align 8, !tbaa !280
  %20 = icmp eq i32 %19, -1
  br i1 %20, label %21, label %22

21:                                               ; preds = %18
  call void @pthread_exit(ptr noundef null) #45
  unreachable

22:                                               ; preds = %18
  call void @llvm.lifetime.start.p0(i64 16, ptr nonnull %3) #39
  %23 = call i32 @clock_gettime(i32 noundef 1, ptr noundef nonnull %3) #39
  %24 = icmp slt i32 %23, 0
  br i1 %24, label %Abc_Clock.exit, label %25

25:                                               ; preds = %22
  %26 = load i64, ptr %3, align 8, !tbaa !274
  %.neg16 = mul i64 %26, -1000000
  %27 = load i64, ptr %6, align 8, !tbaa !276
  %.neg = sdiv i64 %27, -1000
  %.neg17 = add i64 %.neg, %.neg16
  br label %Abc_Clock.exit

Abc_Clock.exit:                                   ; preds = %22, %25
  %.0.i.neg = phi i64 [ %.neg17, %25 ], [ 1, %22 ]
  call void @llvm.lifetime.end.p0(i64 16, ptr nonnull %3) #39
  %28 = load i32, ptr %8, align 8, !tbaa !283
  %29 = sext i32 %28 to i64
  %30 = shl nsw i64 %29, 3
  call void @llvm.memset.p0.i64(ptr nonnull align 8 %7, i8 0, i64 %30, i1 false)
  %31 = load ptr, ptr %0, align 8, !tbaa !284
  %32 = load i32, ptr %10, align 4, !tbaa !285
  %33 = load i32, ptr %11, align 4, !tbaa !286
  %34 = call i32 @Ifn_NtkMatch(ptr noundef %31, ptr noundef nonnull %9, i32 noundef %32, i32 noundef %33, i32 noundef 0, i32 noundef 0, ptr noundef nonnull %7) #39
  store i32 %34, ptr %12, align 8, !tbaa !287
  call void @llvm.lifetime.start.p0(i64 16, ptr nonnull %2) #39
  %35 = call i32 @clock_gettime(i32 noundef 1, ptr noundef nonnull %2) #39
  %36 = icmp slt i32 %35, 0
  br i1 %36, label %Abc_Clock.exit15, label %37

37:                                               ; preds = %Abc_Clock.exit
  %38 = load i64, ptr %2, align 8, !tbaa !274
  %39 = mul nsw i64 %38, 1000000
  %40 = load i64, ptr %13, align 8, !tbaa !276
  %41 = sdiv i64 %40, 1000
  %42 = add nsw i64 %41, %39
  br label %Abc_Clock.exit15

Abc_Clock.exit15:                                 ; preds = %Abc_Clock.exit, %37
  %.0.i14 = phi i64 [ %42, %37 ], [ -1, %Abc_Clock.exit ]
  call void @llvm.lifetime.end.p0(i64 16, ptr nonnull %2) #39
  %43 = add i64 %.0.i14, %.0.i.neg
  %44 = load i64, ptr %14, align 8, !tbaa !288
  %45 = add nsw i64 %43, %44
  store i64 %45, ptr %14, align 8, !tbaa !288
  store i32 0, ptr %4, align 4, !tbaa !289
  br label %.backedge
}